target datalayout = "e-m:e-p270:32:32-p271:32:32-p272:64:64-i64:64-i128:128-f80:128-n8:16:32:64-S128"
target triple = "x86_64-unknown-linux-gnu"

%class.mpf = type { i32, %class.mpz, i64 }
%class.mpz = type { i32, i8, ptr }
%class.mpf_manager = type { %class.mpq_manager, ptr, %"class.mpf_manager::powers2" }
%class.mpq_manager = type { %class.mpz_manager, %class.mpz, %class.mpz, %class.mpz, %class.mpz, %class.mpq, %class.mpq }
%class.mpz_manager = type { %class.small_object_allocator, %"class.std::recursive_mutex", %class.mpn_manager, i32, %class.mpz, %class.mpz }
%class.small_object_allocator = type { [32 x ptr], [32 x ptr], i64 }
%"class.std::recursive_mutex" = type { %"class.std::__recursive_mutex_base" }
%"class.std::__recursive_mutex_base" = type { %union.pthread_mutex_t }
%union.pthread_mutex_t = type { %struct.__pthread_mutex_s }
%struct.__pthread_mutex_s = type { i32, i32, i32, i32, i32, i16, i16, %struct.__pthread_internal_list }
%struct.__pthread_internal_list = type { ptr, ptr }
%class.mpn_manager = type { i8 }
%class.mpq = type { %class.mpz, %class.mpz }
%"class.mpf_manager::powers2" = type { ptr, %class.u_map, %class.u_map, %class.u_map, %class.u_map }
%class.u_map = type { %class.map }
%class.map = type { %class.table2map }
%class.table2map = type { %class.core_hashtable }
%class.core_hashtable = type <{ ptr, i32, i32, i32, [4 x i8] }>

; Function Attrs: mustprogress nounwind uwtable
define linkonce_odr hidden void @_ZN11mpz_managerILb0EE3setER3mpzi(ptr noundef nonnull align 8 dereferenceable(600) %this, ptr noundef nonnull align 8 dereferenceable(16) %a, i32 noundef %val) #5 comdat align 2 {
entry:
  %this.addr = alloca ptr, align 8
  %a.addr = alloca ptr, align 8
  %val.addr = alloca i32, align 4
  store ptr %this, ptr %this.addr, align 8
  store ptr %a, ptr %a.addr, align 8
  store i32 %val, ptr %val.addr, align 4
  %0 = load i32, ptr %val.addr, align 4
  %1 = load ptr, ptr %a.addr, align 8
  %m_val = getelementptr inbounds %class.mpz, ptr %1, i32 0, i32 0
  store i32 %0, ptr %m_val, align 8
  %2 = load ptr, ptr %a.addr, align 8
  %m_kind = getelementptr inbounds %class.mpz, ptr %2, i32 0, i32 1
  %bf.load = load i8, ptr %m_kind, align 4
  %bf.clear = and i8 %bf.load, -2
  %bf.set = or i8 %bf.clear, 0
  store i8 %bf.set, ptr %m_kind, align 4
  ret void
}

; Function Attrs: mustprogress uwtable
define hidden noundef i64 @_ZN11mpf_manager10mk_bot_expEj(ptr noundef nonnull align 8 dereferenceable(840) %this, i32 noundef %ebits) #4 align 2 {
entry:
  %this.addr = alloca ptr, align 8
  %ebits.addr = alloca i32, align 4
  store ptr %this, ptr %this.addr, align 8
  store i32 %ebits, ptr %ebits.addr, align 4
  %this1 = load ptr, ptr %this.addr, align 8
  %m_mpz_manager = getelementptr inbounds %class.mpf_manager, ptr %this1, i32 0, i32 1
  %0 = load ptr, ptr %m_mpz_manager, align 8
  %m_powers2 = getelementptr inbounds %class.mpf_manager, ptr %this1, i32 0, i32 2
  %1 = load i32, ptr %ebits.addr, align 4
  %sub = sub i32 %1, 1
  %call = call noundef nonnull align 8 dereferenceable(16) ptr @_ZN11mpf_manager7powers22m1Ejb(ptr noundef nonnull align 8 dereferenceable(104) %m_powers2, i32 noundef %sub, i1 noundef zeroext true)
  %call2 = call noundef i64 @_ZNK11mpz_managerILb0EE9get_int64ERK3mpz(ptr noundef nonnull align 8 dereferenceable(600) %0, ptr noundef nonnull align 8 dereferenceable(16) %call)
  ret i64 %call2
}

; Function Attrs: mustprogress uwtable
define hidden void @_ZN11mpf_manager8mk_pzeroEjjR3mpf(ptr noundef nonnull align 8 dereferenceable(840) %this, i32 noundef %ebits, i32 noundef %sbits, ptr noundef nonnull align 8 dereferenceable(32) %o) #4 align 2 {
entry:
  %this.addr = alloca ptr, align 8
  %ebits.addr = alloca i32, align 4
  %sbits.addr = alloca i32, align 4
  %o.addr = alloca ptr, align 8
  store ptr %this, ptr %this.addr, align 8
  store i32 %ebits, ptr %ebits.addr, align 4
  store i32 %sbits, ptr %sbits.addr, align 4
  store ptr %o, ptr %o.addr, align 8
  %this1 = load ptr, ptr %this.addr, align 8
  %0 = load i32, ptr %sbits.addr, align 4
  %1 = load ptr, ptr %o.addr, align 8
  %bf.load = load i32, ptr %1, align 8
  %bf.value = and i32 %0, 65535
  %bf.shl = shl i32 %bf.value, 15
  %bf.clear = and i32 %bf.load, -2147450881
  %bf.set = or i32 %bf.clear, %bf.shl
  store i32 %bf.set, ptr %1, align 8
  %2 = load i32, ptr %ebits.addr, align 4
  %3 = load ptr, ptr %o.addr, align 8
  %bf.load2 = load i32, ptr %3, align 8
  %bf.value3 = and i32 %2, 32767
  %bf.clear4 = and i32 %bf.load2, -32768
  %bf.set5 = or i32 %bf.clear4, %bf.value3
  store i32 %bf.set5, ptr %3, align 8
  %4 = load i32, ptr %ebits.addr, align 4
  %call = call noundef i64 @_ZN11mpf_manager10mk_bot_expEj(ptr noundef nonnull align 8 dereferenceable(840) %this1, i32 noundef %4)
  %5 = load ptr, ptr %o.addr, align 8
  %exponent = getelementptr inbounds %class.mpf, ptr %5, i32 0, i32 2
  store i64 %call, ptr %exponent, align 8
  %m_mpz_manager = getelementptr inbounds %class.mpf_manager, ptr %this1, i32 0, i32 1
  %6 = load ptr, ptr %m_mpz_manager, align 8
  %7 = load ptr, ptr %o.addr, align 8
  %significand = getelementptr inbounds %class.mpf, ptr %7, i32 0, i32 1
  call void @_ZN11mpz_managerILb0EE3setER3mpzi(ptr noundef nonnull align 8 dereferenceable(600) %6, ptr noundef nonnull align 8 dereferenceable(16) %significand, i32 noundef 0)
  %8 = load ptr, ptr %o.addr, align 8
  %bf.load6 = load i32, ptr %8, align 8
  %bf.clear7 = and i32 %bf.load6, 2147483647
  %bf.set8 = or i32 %bf.clear7, 0
  store i32 %bf.set8, ptr %8, align 8
  ret void
}

; Function Attrs: mustprogress uwtable
define hidden void @_ZN11mpf_manager8mk_nzeroEjjR3mpf(ptr noundef nonnull align 8 dereferenceable(840) %this, i32 noundef %ebits, i32 noundef %sbits, ptr noundef nonnull align 8 dereferenceable(32) %o) #4 align 2 {
entry:
  %this.addr = alloca ptr, align 8
  %ebits.addr = alloca i32, align 4
  %sbits.addr = alloca i32, align 4
  %o.addr = alloca ptr, align 8
  store ptr %this, ptr %this.addr, align 8
  store i32 %ebits, ptr %ebits.addr, align 4
  store i32 %sbits, ptr %sbits.addr, align 4
  store ptr %o, ptr %o.addr, align 8
  %this1 = load ptr, ptr %this.addr, align 8
  %0 = load i32, ptr %sbits.addr, align 4
  %1 = load ptr, ptr %o.addr, align 8
  %bf.load = load i32, ptr %1, align 8
  %bf.value = and i32 %0, 65535
  %bf.shl = shl i32 %bf.value, 15
  %bf.clear = and i32 %bf.load, -2147450881
  %bf.set = or i32 %bf.clear, %bf.shl
  store i32 %bf.set, ptr %1, align 8
  %2 = load i32, ptr %ebits.addr, align 4
  %3 = load ptr, ptr %o.addr, align 8
  %bf.load2 = load i32, ptr %3, align 8
  %bf.value3 = and i32 %2, 32767
  %bf.clear4 = and i32 %bf.load2, -32768
  %bf.set5 = or i32 %bf.clear4, %bf.value3
  store i32 %bf.set5, ptr %3, align 8
  %4 = load i32, ptr %ebits.addr, align 4
  %call = call noundef i64 @_ZN11mpf_manager10mk_bot_expEj(ptr noundef nonnull align 8 dereferenceable(840) %this1, i32 noundef %4)
  %5 = load ptr, ptr %o.addr, align 8
  %exponent = getelementptr inbounds %class.mpf, ptr %5, i32 0, i32 2
  store i64 %call, ptr %exponent, align 8
  %m_mpz_manager = getelementptr inbounds %class.mpf_manager, ptr %this1, i32 0, i32 1
  %6 = load ptr, ptr %m_mpz_manager, align 8
  %7 = load ptr, ptr %o.addr, align 8
  %significand = getelementptr inbounds %class.mpf, ptr %7, i32 0, i32 1
  call void @_ZN11mpz_managerILb0EE3setER3mpzi(ptr noundef nonnull align 8 dereferenceable(600) %6, ptr noundef nonnull align 8 dereferenceable(16) %significand, i32 noundef 0)
  %8 = load ptr, ptr %o.addr, align 8
  %bf.load6 = load i32, ptr %8, align 8
  %bf.clear7 = and i32 %bf.load6, 2147483647
  %bf.set8 = or i32 %bf.clear7, -2147483648
  store i32 %bf.set8, ptr %8, align 8
  ret void
}

; Function Attrs: mustprogress uwtable
define hidden void @_ZN11mpf_manager7mk_zeroEjjbR3mpf(ptr noundef nonnull align 8 dereferenceable(840) %this, i32 noundef %ebits, i32 noundef %sbits, i1 noundef zeroext %sign, ptr noundef nonnull align 8 dereferenceable(32) %o) #4 align 2 {
entry:
  %this.addr = alloca ptr, align 8
  %ebits.addr = alloca i32, align 4
  %sbits.addr = alloca i32, align 4
  %sign.addr = alloca i8, align 1
  %o.addr = alloca ptr, align 8
  store ptr %this, ptr %this.addr, align 8
  store i32 %ebits, ptr %ebits.addr, align 4
  store i32 %sbits, ptr %sbits.addr, align 4
  %frombool = zext i1 %sign to i8
  store i8 %frombool, ptr %sign.addr, align 1
  store ptr %o, ptr %o.addr, align 8
  %this1 = load ptr, ptr %this.addr, align 8
  %0 = load i8, ptr %sign.addr, align 1
  %tobool = trunc i8 %0 to i1
  br i1 %tobool, label %if.then, label %if.else

if.then:                                          ; preds = %entry
  %1 = load i32, ptr %ebits.addr, align 4
  %2 = load i32, ptr %sbits.addr, align 4
  %3 = load ptr, ptr %o.addr, align 8
  call void @_ZN11mpf_manager8mk_nzeroEjjR3mpf(ptr noundef nonnull align 8 dereferenceable(840) %this1, i32 noundef %1, i32 noundef %2, ptr noundef nonnull align 8 dereferenceable(32) %3)
  br label %if.end

if.else:                                          ; preds = %entry
  %4 = load i32, ptr %ebits.addr, align 4
  %5 = load i32, ptr %sbits.addr, align 4
  %6 = load ptr, ptr %o.addr, align 8
  call void @_ZN11mpf_manager8mk_pzeroEjjR3mpf(ptr noundef nonnull align 8 dereferenceable(840) %this1, i32 noundef %4, i32 noundef %5, ptr noundef nonnull align 8 dereferenceable(32) %6)
  br label %if.end

if.end:                                           ; preds = %if.else, %if.then
  ret void
}